; Function Attrs: mustprogress uwtable
define hidden noundef zeroext i1 @_ZNK6google8protobuf10Reflection8HasOneofERKNS0_7MessageEPKNS0_15OneofDescriptorE(ptr noundef nonnull align 8 dereferenceable(96) %0, ptr noundef nonnull align 8 dereferenceable(16) %1, ptr noundef %2) local_unnamed_addr #3 align 2 personality ptr @__gxx_personality_v0 {
  %4 = getelementptr inbounds nuw i8, ptr %2, i64 4
  %5 = load i32, ptr %4, align 4, !tbaa !104
  %6 = icmp eq i32 %5, 1
  br i1 %6, label %_ZNK6google8protobuf15OneofDescriptor12is_syntheticEv.exit, label %_ZNK6google8protobuf15OneofDescriptor12is_syntheticEv.exit.thread

_ZNK6google8protobuf15OneofDescriptor12is_syntheticEv.exit: ; preds = %3
  %7 = getelementptr inbounds nuw i8, ptr %2, i64 32
  %8 = load ptr, ptr %7, align 8, !tbaa !107
  %9 = getelementptr inbounds nuw i8, ptr %8, i64 1
  %10 = load i8, ptr %9, align 1
  %11 = and i8 %10, 2
  %.not = icmp eq i8 %11, 0
  br i1 %.not, label %_ZNK6google8protobuf15OneofDescriptor12is_syntheticEv.exit.thread, label %12

12:                                               ; preds = %_ZNK6google8protobuf15OneofDescriptor12is_syntheticEv.exit
  %13 = tail call noundef zeroext i1 @_ZNK6google8protobuf10Reflection8HasFieldERKNS0_7MessageEPKNS0_15FieldDescriptorE(ptr noundef nonnull align 8 dereferenceable(96) %0, ptr noundef nonnull align 8 dereferenceable(16) %1, ptr noundef nonnull %8)
  br label %31

_ZNK6google8protobuf15OneofDescriptor12is_syntheticEv.exit.thread: ; preds = %3, %_ZNK6google8protobuf15OneofDescriptor12is_syntheticEv.exit
  %14 = getelementptr inbounds nuw i8, ptr %0, i64 44
  %15 = load i32, ptr %14, align 4, !tbaa !108
  %16 = getelementptr inbounds nuw i8, ptr %2, i64 16
  %17 = load ptr, ptr %16, align 8, !tbaa !109
  %18 = getelementptr inbounds nuw i8, ptr %17, i64 48
  %19 = load ptr, ptr %18, align 8, !tbaa !110
  %20 = ptrtoint ptr %2 to i64
  %21 = ptrtoint ptr %19 to i64
  %22 = sub i64 %20, %21
  %23 = sdiv exact i64 %22, 40
  %24 = trunc i64 %23 to i32
  %25 = shl i32 %24, 2
  %26 = add i32 %25, %15
  %27 = zext i32 %26 to i64
  %28 = getelementptr inbounds nuw i8, ptr %1, i64 %27
  %29 = load i32, ptr %28, align 4, !tbaa !15
  %30 = icmp ne i32 %29, 0
  br label %31

31:                                               ; preds = %_ZNK6google8protobuf15OneofDescriptor12is_syntheticEv.exit.thread, %12
  %.0 = phi i1 [ %13, %12 ], [ %30, %_ZNK6google8protobuf15OneofDescriptor12is_syntheticEv.exit.thread ]
  ret i1 %.0
}